; Function Attrs: nounwind uwtable
define internal fastcc void @Vec_StrAppend(ptr noundef captures(none) %0, ptr noundef readonly captures(none) %1) unnamed_addr #2 {
  %3 = tail call i64 @strlen(ptr noundef nonnull readonly dereferenceable(1) %1) #13
  %4 = trunc i64 %3 to i32
  %5 = icmp sgt i32 %4, 0
  br i1 %5, label %.lr.ph.i, label %Vec_StrPrintStr.exit

.lr.ph.i:                                         ; preds = %2
  %6 = getelementptr inbounds nuw i8, ptr %0, i64 4
  %.phi.trans.insert.i.i = getelementptr inbounds nuw i8, ptr %0, i64 8
  %wide.trip.count.i = and i64 %3, 2147483647
  br label %7

7:                                                ; preds = %Vec_StrPush.exit.i, %.lr.ph.i
  %indvars.iv.i = phi i64 [ 0, %.lr.ph.i ], [ %indvars.iv.next.i, %Vec_StrPush.exit.i ]
  %8 = getelementptr inbounds nuw i8, ptr %1, i64 %indvars.iv.i
  %9 = load i8, ptr %8, align 1
  %10 = load i32, ptr %6, align 4
  %11 = load i32, ptr %0, align 8
  %12 = icmp eq i32 %10, %11
  br i1 %12, label %13, label %.Vec_StrGrow.exit10_crit_edge.i.i

.Vec_StrGrow.exit10_crit_edge.i.i:                ; preds = %7
  %.pre.i.i = load ptr, ptr %.phi.trans.insert.i.i, align 8
  br label %Vec_StrPush.exit.i

13:                                               ; preds = %7
  %14 = icmp slt i32 %10, 16
  br i1 %14, label %15, label %22

15:                                               ; preds = %13
  %16 = load ptr, ptr %.phi.trans.insert.i.i, align 8
  %.not9.i.i.i = icmp eq ptr %16, null
  br i1 %.not9.i.i.i, label %19, label %17

17:                                               ; preds = %15
  %18 = tail call dereferenceable_or_null(16) ptr @realloc(ptr noundef nonnull %16, i64 noundef 16) #15
  br label %Vec_StrGrow.exit.i.i

19:                                               ; preds = %15
  %20 = tail call noalias dereferenceable_or_null(16) ptr @malloc(i64 noundef 16) #14
  br label %Vec_StrGrow.exit.i.i

Vec_StrGrow.exit.i.i:                             ; preds = %19, %17
  %21 = phi ptr [ %18, %17 ], [ %20, %19 ]
  store ptr %21, ptr %.phi.trans.insert.i.i, align 8
  store i32 16, ptr %0, align 8
  br label %Vec_StrPush.exit.i

22:                                               ; preds = %13
  %23 = shl nuw nsw i32 %10, 1
  %24 = load ptr, ptr %.phi.trans.insert.i.i, align 8
  %.not9.i9.i.i = icmp eq ptr %24, null
  %25 = zext nneg i32 %23 to i64
  br i1 %.not9.i9.i.i, label %28, label %26

26:                                               ; preds = %22
  %27 = tail call ptr @realloc(ptr noundef nonnull %24, i64 noundef %25) #15
  br label %30

28:                                               ; preds = %22
  %29 = tail call noalias ptr @malloc(i64 noundef %25) #14
  br label %30

30:                                               ; preds = %28, %26
  %31 = phi ptr [ %27, %26 ], [ %29, %28 ]
  store ptr %31, ptr %.phi.trans.insert.i.i, align 8
  store i32 %23, ptr %0, align 8
  br label %Vec_StrPush.exit.i

Vec_StrPush.exit.i:                               ; preds = %30, %Vec_StrGrow.exit.i.i, %.Vec_StrGrow.exit10_crit_edge.i.i
  %32 = phi ptr [ %.pre.i.i, %.Vec_StrGrow.exit10_crit_edge.i.i ], [ %31, %30 ], [ %21, %Vec_StrGrow.exit.i.i ]
  %33 = load i32, ptr %6, align 4
  %34 = add nsw i32 %33, 1
  store i32 %34, ptr %6, align 4
  %35 = sext i32 %33 to i64
  %36 = getelementptr inbounds i8, ptr %32, i64 %35
  store i8 %9, ptr %36, align 1
  %indvars.iv.next.i = add nuw nsw i64 %indvars.iv.i, 1
  %exitcond.not.i = icmp eq i64 %indvars.iv.next.i, %wide.trip.count.i
  br i1 %exitcond.not.i, label %Vec_StrPrintStr.exit, label %7, !llvm.loop !15

Vec_StrPrintStr.exit:                             ; preds = %Vec_StrPush.exit.i, %2
  ret void
}